; ModuleID = '11/176.c'
source_filename = "11/176.c"
target datalayout = "e-m:e-p270:32:32-p271:32:32-p272:64:64-i64:64-f80:128-n8:16:32:64-S128"
target triple = "x86_64-pc-linux-gnu"

@.str = private unnamed_addr constant [7 x i8] c"%d%d%d\00", align 1
@main.days = internal global [13 x i32] [i32 0, i32 31, i32 28, i32 31, i32 30, i32 31, i32 30, i32 31, i32 31, i32 30, i32 31, i32 30, i32 31], align 16
@.str.1 = private unnamed_addr constant [16 x i8] c"Illegal input.\0A\00", align 1
@.str.2 = private unnamed_addr constant [3 x i8] c"%d\00", align 1

; Function Attrs: noinline nounwind uwtable
define dso_local i32 @main(i32 %0, i8** %1) #0 {
  %3 = alloca i32, align 4
  %4 = alloca i32, align 4
  %5 = alloca i8**, align 8
  %6 = alloca i32, align 4
  %7 = alloca i32, align 4
  %8 = alloca i32, align 4
  %9 = alloca i32, align 4
  %10 = alloca i32, align 4
  store i32 0, i32* %3, align 4
  store i32 %0, i32* %4, align 4
  store i8** %1, i8*** %5, align 8
  %11 = call i32 (i8*, ...) @__isoc99_scanf(i8* getelementptr inbounds ([7 x i8], [7 x i8]* @.str, i64 0, i64 0), i32* %6, i32* %7, i32* %8)
  %12 = load i32, i32* %6, align 4
  %13 = srem i32 %12, 4
  %14 = icmp eq i32 %13, 0
  br i1 %14, label %15, label %19

15:                                               ; preds = %2
  %16 = load i32, i32* %6, align 4
  %17 = srem i32 %16, 100
  %18 = icmp ne i32 %17, 0
  br i1 %18, label %23, label %19

19:                                               ; preds = %15, %2
  %20 = load i32, i32* %6, align 4
  %21 = srem i32 %20, 400
  %22 = icmp eq i32 %21, 0
  br i1 %22, label %23, label %34

23:                                               ; preds = %19, %15
  %24 = load i32, i32* %7, align 4
  %25 = icmp eq i32 %24, 2
  br i1 %25, label %26, label %34

26:                                               ; preds = %23
  %27 = load i32, i32* %8, align 4
  %28 = icmp slt i32 %27, 1
  br i1 %28, label %32, label %29

29:                                               ; preds = %26
  %30 = load i32, i32* %8, align 4
  %31 = icmp sgt i32 %30, 29
  br i1 %31, label %32, label %34

32:                                               ; preds = %29, %26
  %33 = call i32 (i8*, ...) @printf(i8* getelementptr inbounds ([16 x i8], [16 x i8]* @.str.1, i64 0, i64 0))
  store i32 -1, i32* %3, align 4
  br label %100

34:                                               ; preds = %29, %23, %19
  %35 = load i32, i32* %6, align 4
  %36 = srem i32 %35, 4
  %37 = icmp eq i32 %36, 0
  br i1 %37, label %38, label %42

38:                                               ; preds = %34
  %39 = load i32, i32* %6, align 4
  %40 = srem i32 %39, 100
  %41 = icmp ne i32 %40, 0
  br i1 %41, label %46, label %42

42:                                               ; preds = %38, %34
  %43 = load i32, i32* %6, align 4
  %44 = srem i32 %43, 400
  %45 = icmp eq i32 %44, 0
  br i1 %45, label %46, label %61

46:                                               ; preds = %42, %38
  %47 = load i32, i32* %7, align 4
  %48 = icmp ne i32 %47, 2
  br i1 %48, label %49, label %61

49:                                               ; preds = %46
  %50 = load i32, i32* %8, align 4
  %51 = icmp slt i32 %50, 1
  br i1 %51, label %59, label %52

52:                                               ; preds = %49
  %53 = load i32, i32* %8, align 4
  %54 = load i32, i32* %7, align 4
  %55 = sext i32 %54 to i64
  %56 = getelementptr inbounds [13 x i32], [13 x i32]* @main.days, i64 0, i64 %55
  %57 = load i32, i32* %56, align 4
  %58 = icmp sgt i32 %53, %57
  br i1 %58, label %59, label %61

59:                                               ; preds = %52, %49
  %60 = call i32 (i8*, ...) @printf(i8* getelementptr inbounds ([16 x i8], [16 x i8]* @.str.1, i64 0, i64 0))
  store i32 -1, i32* %3, align 4
  br label %100

61:                                               ; preds = %52, %46, %42
  store i32 0, i32* %9, align 4
  store i32 1, i32* %10, align 4
  br label %62

62:                                               ; preds = %73, %61
  %63 = load i32, i32* %10, align 4
  %64 = load i32, i32* %7, align 4
  %65 = icmp slt i32 %63, %64
  br i1 %65, label %66, label %76

66:                                               ; preds = %62
  %67 = load i32, i32* %10, align 4
  %68 = sext i32 %67 to i64
  %69 = getelementptr inbounds [13 x i32], [13 x i32]* @main.days, i64 0, i64 %68
  %70 = load i32, i32* %69, align 4
  %71 = load i32, i32* %9, align 4
  %72 = add nsw i32 %71, %70
  store i32 %72, i32* %9, align 4
  br label %73

73:                                               ; preds = %66
  %74 = load i32, i32* %10, align 4
  %75 = add nsw i32 %74, 1
  store i32 %75, i32* %10, align 4
  br label %62

76:                                               ; preds = %62
  %77 = load i32, i32* %8, align 4
  %78 = load i32, i32* %9, align 4
  %79 = add nsw i32 %78, %77
  store i32 %79, i32* %9, align 4
  %80 = load i32, i32* %7, align 4
  %81 = icmp sgt i32 %80, 2
  br i1 %81, label %82, label %97

82:                                               ; preds = %76
  %83 = load i32, i32* %6, align 4
  %84 = srem i32 %83, 4
  %85 = icmp eq i32 %84, 0
  br i1 %85, label %86, label %90

86:                                               ; preds = %82
  %87 = load i32, i32* %6, align 4
  %88 = srem i32 %87, 100
  %89 = icmp ne i32 %88, 0
  br i1 %89, label %94, label %90

90:                                               ; preds = %86, %82
  %91 = load i32, i32* %6, align 4
  %92 = srem i32 %91, 400
  %93 = icmp eq i32 %92, 0
  br i1 %93, label %94, label %97

94:                                               ; preds = %90, %86
  %95 = load i32, i32* %9, align 4
  %96 = add nsw i32 %95, 1
  store i32 %96, i32* %9, align 4
  br label %97

97:                                               ; preds = %94, %90, %76
  %98 = load i32, i32* %9, align 4
  %99 = call i32 (i8*, ...) @printf(i8* getelementptr inbounds ([3 x i8], [3 x i8]* @.str.2, i64 0, i64 0), i32 %98)
  br label %100

100:                                              ; preds = %97, %59, %32
  %101 = load i32, i32* %3, align 4
  ret i32 %101
}

declare dso_local i32 @__isoc99_scanf(i8*, ...) #1

declare dso_local i32 @printf(i8*, ...) #1


!llvm.module.flags = !{!0}
!llvm.ident = !{!1}

!0 = !{i32 1, !"wchar_size", i32 4}
!1 = !{!"clang version 10.0.0-4ubuntu1 "}
